; Function Attrs: nounwind uwtable
define hidden noalias ptr @mi_wcsdup(ptr noundef readonly captures(address_is_null) %0) local_unnamed_addr #0 {
  %2 = icmp eq ptr %0, null
  br i1 %2, label %11, label %.preheader

.preheader:                                       ; preds = %1, %.preheader
  %.011 = phi i64 [ %5, %.preheader ], [ 0, %1 ]
  %3 = getelementptr inbounds nuw i16, ptr %0, i64 %.011
  %4 = load i16, ptr %3, align 2, !tbaa !9
  %.not = icmp eq i16 %4, 0
  %5 = add i64 %.011, 1
  br i1 %.not, label %6, label %.preheader, !llvm.loop !11

6:                                                ; preds = %.preheader
  %7 = shl i64 %.011, 1
  %8 = add i64 %7, 2
  %9 = tail call noalias ptr @mi_malloc(i64 noundef %8) #7
  %.not14 = icmp eq ptr %9, null
  br i1 %.not14, label %11, label %10

10:                                               ; preds = %6
  tail call void @llvm.memcpy.p0.p0.i64(ptr nonnull align 1 %9, ptr nonnull readonly align 1 %0, i64 %8, i1 false)
  br label %11

11:                                               ; preds = %6, %10, %1
  %.0 = phi ptr [ null, %1 ], [ %9, %10 ], [ null, %6 ]
  ret ptr %.0
}